; ModuleID = '21/1823.c'
source_filename = "21/1823.c"
target datalayout = "e-m:e-p270:32:32-p271:32:32-p272:64:64-i64:64-f80:128-n8:16:32:64-S128"
target triple = "x86_64-pc-linux-gnu"

@.str = private unnamed_addr constant [3 x i8] c"%d\00", align 1
@.str.1 = private unnamed_addr constant [4 x i8] c",%d\00", align 1

; Function Attrs: noinline nounwind uwtable
define dso_local void @main() #0 {
  %1 = alloca i32, align 4
  %2 = alloca [100 x i32], align 16
  %3 = alloca i32, align 4
  %4 = alloca i32, align 4
  %5 = alloca float, align 4
  %6 = alloca float, align 4
  %7 = alloca [100 x float], align 16
  %8 = alloca float, align 4
  store i32 0, i32* %4, align 4
  store float 0.000000e+00, float* %5, align 4
  %9 = call i32 (i8*, ...) @__isoc99_scanf(i8* getelementptr inbounds ([3 x i8], [3 x i8]* @.str, i64 0, i64 0), i32* %3)
  store i32 0, i32* %1, align 4
  br label %10

10:                                               ; preds = %26, %0
  %11 = load i32, i32* %1, align 4
  %12 = load i32, i32* %3, align 4
  %13 = icmp slt i32 %11, %12
  br i1 %13, label %14, label %29

14:                                               ; preds = %10
  %15 = load i32, i32* %1, align 4
  %16 = sext i32 %15 to i64
  %17 = getelementptr inbounds [100 x i32], [100 x i32]* %2, i64 0, i64 %16
  %18 = call i32 (i8*, ...) @__isoc99_scanf(i8* getelementptr inbounds ([3 x i8], [3 x i8]* @.str, i64 0, i64 0), i32* %17)
  %19 = load float, float* %5, align 4
  %20 = load i32, i32* %1, align 4
  %21 = sext i32 %20 to i64
  %22 = getelementptr inbounds [100 x i32], [100 x i32]* %2, i64 0, i64 %21
  %23 = load i32, i32* %22, align 4
  %24 = sitofp i32 %23 to float
  %25 = fadd float %19, %24
  store float %25, float* %5, align 4
  br label %26

26:                                               ; preds = %14
  %27 = load i32, i32* %1, align 4
  %28 = add nsw i32 %27, 1
  store i32 %28, i32* %1, align 4
  br label %10

29:                                               ; preds = %10
  %30 = load float, float* %5, align 4
  %31 = load i32, i32* %3, align 4
  %32 = sitofp i32 %31 to float
  %33 = fdiv float %30, %32
  store float %33, float* %6, align 4
  store i32 0, i32* %1, align 4
  br label %34

34:                                               ; preds = %84, %29
  %35 = load i32, i32* %1, align 4
  %36 = load i32, i32* %3, align 4
  %37 = icmp slt i32 %35, %36
  br i1 %37, label %38, label %87

38:                                               ; preds = %34
  %39 = load i32, i32* %1, align 4
  %40 = sext i32 %39 to i64
  %41 = getelementptr inbounds [100 x i32], [100 x i32]* %2, i64 0, i64 %40
  %42 = load i32, i32* %41, align 4
  %43 = sitofp i32 %42 to float
  %44 = load float, float* %6, align 4
  %45 = fcmp ogt float %43, %44
  br i1 %45, label %46, label %57

46:                                               ; preds = %38
  %47 = load i32, i32* %1, align 4
  %48 = sext i32 %47 to i64
  %49 = getelementptr inbounds [100 x i32], [100 x i32]* %2, i64 0, i64 %48
  %50 = load i32, i32* %49, align 4
  %51 = sitofp i32 %50 to float
  %52 = load float, float* %6, align 4
  %53 = fsub float %51, %52
  %54 = load i32, i32* %1, align 4
  %55 = sext i32 %54 to i64
  %56 = getelementptr inbounds [100 x float], [100 x float]* %7, i64 0, i64 %55
  store float %53, float* %56, align 4
  br label %68

57:                                               ; preds = %38
  %58 = load float, float* %6, align 4
  %59 = load i32, i32* %1, align 4
  %60 = sext i32 %59 to i64
  %61 = getelementptr inbounds [100 x i32], [100 x i32]* %2, i64 0, i64 %60
  %62 = load i32, i32* %61, align 4
  %63 = sitofp i32 %62 to float
  %64 = fsub float %58, %63
  %65 = load i32, i32* %1, align 4
  %66 = sext i32 %65 to i64
  %67 = getelementptr inbounds [100 x float], [100 x float]* %7, i64 0, i64 %66
  store float %64, float* %67, align 4
  br label %68

68:                                               ; preds = %57, %46
  %69 = load float, float* %8, align 4
  %70 = load i32, i32* %1, align 4
  %71 = sext i32 %70 to i64
  %72 = getelementptr inbounds [100 x float], [100 x float]* %7, i64 0, i64 %71
  %73 = load float, float* %72, align 4
  %74 = fcmp oge float %69, %73
  br i1 %74, label %75, label %77

75:                                               ; preds = %68
  %76 = load float, float* %8, align 4
  br label %82

77:                                               ; preds = %68
  %78 = load i32, i32* %1, align 4
  %79 = sext i32 %78 to i64
  %80 = getelementptr inbounds [100 x float], [100 x float]* %7, i64 0, i64 %79
  %81 = load float, float* %80, align 4
  br label %82

82:                                               ; preds = %77, %75
  %83 = phi float [ %76, %75 ], [ %81, %77 ]
  store float %83, float* %8, align 4
  br label %84

84:                                               ; preds = %82
  %85 = load i32, i32* %1, align 4
  %86 = add nsw i32 %85, 1
  store i32 %86, i32* %1, align 4
  br label %34

87:                                               ; preds = %34
  store i32 0, i32* %1, align 4
  br label %88

88:                                               ; preds = %117, %87
  %89 = load i32, i32* %1, align 4
  %90 = load i32, i32* %3, align 4
  %91 = icmp slt i32 %89, %90
  br i1 %91, label %92, label %120

92:                                               ; preds = %88
  %93 = load i32, i32* %1, align 4
  %94 = sext i32 %93 to i64
  %95 = getelementptr inbounds [100 x float], [100 x float]* %7, i64 0, i64 %94
  %96 = load float, float* %95, align 4
  %97 = load float, float* %8, align 4
  %98 = fcmp oeq float %96, %97
  br i1 %98, label %99, label %116

99:                                               ; preds = %92
  %100 = load i32, i32* %4, align 4
  %101 = add nsw i32 %100, 1
  store i32 %101, i32* %4, align 4
  %102 = load i32, i32* %1, align 4
  %103 = sext i32 %102 to i64
  %104 = getelementptr inbounds [100 x i32], [100 x i32]* %2, i64 0, i64 %103
  %105 = load i32, i32* %104, align 4
  %106 = sitofp i32 %105 to float
  %107 = load float, float* %6, align 4
  %108 = fcmp olt float %106, %107
  br i1 %108, label %109, label %115

109:                                              ; preds = %99
  %110 = load i32, i32* %1, align 4
  %111 = sext i32 %110 to i64
  %112 = getelementptr inbounds [100 x i32], [100 x i32]* %2, i64 0, i64 %111
  %113 = load i32, i32* %112, align 4
  %114 = call i32 (i8*, ...) @printf(i8* getelementptr inbounds ([3 x i8], [3 x i8]* @.str, i64 0, i64 0), i32 %113)
  br label %115

115:                                              ; preds = %109, %99
  br label %116

116:                                              ; preds = %115, %92
  br label %117

117:                                              ; preds = %116
  %118 = load i32, i32* %1, align 4
  %119 = add nsw i32 %118, 1
  store i32 %119, i32* %1, align 4
  br label %88

120:                                              ; preds = %88
  store i32 0, i32* %1, align 4
  br label %121

121:                                              ; preds = %160, %120
  %122 = load i32, i32* %1, align 4
  %123 = load i32, i32* %3, align 4
  %124 = icmp slt i32 %122, %123
  br i1 %124, label %125, label %163

125:                                              ; preds = %121
  %126 = load i32, i32* %1, align 4
  %127 = sext i32 %126 to i64
  %128 = getelementptr inbounds [100 x i32], [100 x i32]* %2, i64 0, i64 %127
  %129 = load i32, i32* %128, align 4
  %130 = sitofp i32 %129 to float
  %131 = load float, float* %6, align 4
  %132 = fcmp ogt float %130, %131
  br i1 %132, label %133, label %159

133:                                              ; preds = %125
  %134 = load i32, i32* %1, align 4
  %135 = sext i32 %134 to i64
  %136 = getelementptr inbounds [100 x float], [100 x float]* %7, i64 0, i64 %135
  %137 = load float, float* %136, align 4
  %138 = load float, float* %8, align 4
  %139 = fcmp oeq float %137, %138
  br i1 %139, label %140, label %159

140:                                              ; preds = %133
  %141 = load i32, i32* %4, align 4
  %142 = icmp eq i32 %141, 2
  br i1 %142, label %143, label %149

143:                                              ; preds = %140
  %144 = load i32, i32* %1, align 4
  %145 = sext i32 %144 to i64
  %146 = getelementptr inbounds [100 x i32], [100 x i32]* %2, i64 0, i64 %145
  %147 = load i32, i32* %146, align 4
  %148 = call i32 (i8*, ...) @printf(i8* getelementptr inbounds ([4 x i8], [4 x i8]* @.str.1, i64 0, i64 0), i32 %147)
  br label %149

149:                                              ; preds = %143, %140
  %150 = load i32, i32* %4, align 4
  %151 = icmp eq i32 %150, 1
  br i1 %151, label %152, label %158

152:                                              ; preds = %149
  %153 = load i32, i32* %1, align 4
  %154 = sext i32 %153 to i64
  %155 = getelementptr inbounds [100 x i32], [100 x i32]* %2, i64 0, i64 %154
  %156 = load i32, i32* %155, align 4
  %157 = call i32 (i8*, ...) @printf(i8* getelementptr inbounds ([3 x i8], [3 x i8]* @.str, i64 0, i64 0), i32 %156)
  br label %158

158:                                              ; preds = %152, %149
  br label %159

159:                                              ; preds = %158, %133, %125
  br label %160

160:                                              ; preds = %159
  %161 = load i32, i32* %1, align 4
  %162 = add nsw i32 %161, 1
  store i32 %162, i32* %1, align 4
  br label %121

163:                                              ; preds = %121
  ret void
}

declare dso_local i32 @__isoc99_scanf(i8*, ...) #1

declare dso_local i32 @printf(i8*, ...) #1


!llvm.module.flags = !{!0}
!llvm.ident = !{!1}

!0 = !{i32 1, !"wchar_size", i32 4}
!1 = !{!"clang version 10.0.0-4ubuntu1 "}
